target datalayout = "e-m:e-p270:32:32-p271:32:32-p272:64:64-i64:64-i128:128-f80:128-n8:16:32:64-S128"
target triple = "x86_64-pc-linux-gnu"

%struct.b2Vec2 = type { float, float }
%struct.b2ShapeId = type { i32, i16, i16 }
%struct.ShapeUserData = type { i32, i8 }
%struct.RayCastContext = type { [3 x %struct.b2Vec2], [3 x %struct.b2Vec2], [3 x float], i32 }

; Function Attrs: mustprogress uwtable
define internal noundef float @_ZL21RayCastSortedCallback9b2ShapeId6b2Vec2S0_fPv(i64 %0, <2 x float> %1, <2 x float> %2, float noundef %3, ptr noundef %4) #9 {
  %6 = alloca float, align 4
  %7 = alloca %struct.b2ShapeId, align 4
  %8 = alloca %struct.b2Vec2, align 4
  %9 = alloca %struct.b2Vec2, align 4
  %10 = alloca float, align 4
  %11 = alloca ptr, align 8
  %12 = alloca ptr, align 8
  %13 = alloca ptr, align 8
  %14 = alloca %struct.b2ShapeId, align 4
  %15 = alloca i32, align 4
  %16 = alloca i32, align 4
  %17 = alloca i32, align 4
  %18 = alloca i32, align 4
  store i64 %0, ptr %7, align 4
  store <2 x float> %1, ptr %8, align 4
  store <2 x float> %2, ptr %9, align 4
  store float %3, ptr %10, align 4, !tbaa !25
  store ptr %4, ptr %11, align 8, !tbaa !178
  call void @llvm.lifetime.start.p0(i64 8, ptr %12) #21
  %19 = load ptr, ptr %11, align 8, !tbaa !178
  store ptr %19, ptr %12, align 8, !tbaa !249
  call void @llvm.lifetime.start.p0(i64 8, ptr %13) #21
  call void @llvm.memcpy.p0.p0.i64(ptr align 4 %14, ptr align 4 %7, i64 8, i1 false), !tbaa.struct !225
  %20 = load i64, ptr %14, align 4
  %21 = call ptr @b2Shape_GetUserData(i64 %20)
  store ptr %21, ptr %13, align 8, !tbaa !251
  %22 = load ptr, ptr %13, align 8, !tbaa !251
  %23 = icmp ne ptr %22, null
  br i1 %23, label %24, label %30

24:                                               ; preds = %5
  %25 = load ptr, ptr %13, align 8, !tbaa !251
  %26 = getelementptr inbounds nuw %struct.ShapeUserData, ptr %25, i32 0, i32 1
  %27 = load i8, ptr %26, align 4, !tbaa !223, !range !19, !noundef !20
  %28 = trunc i8 %27 to i1
  br i1 %28, label %29, label %30

29:                                               ; preds = %24
  store float -1.000000e+00, ptr %6, align 4
  store i32 1, ptr %15, align 4
  br label %141

30:                                               ; preds = %24, %5
  call void @llvm.lifetime.start.p0(i64 4, ptr %16) #21
  %31 = load ptr, ptr %12, align 8, !tbaa !249
  %32 = getelementptr inbounds nuw %struct.RayCastContext, ptr %31, i32 0, i32 3
  %33 = load i32, ptr %32, align 4, !tbaa !244
  store i32 %33, ptr %16, align 4, !tbaa !4
  call void @llvm.lifetime.start.p0(i64 4, ptr %17) #21
  store i32 3, ptr %17, align 4, !tbaa !4
  br label %34

34:                                               ; preds = %50, %30
  %35 = load float, ptr %10, align 4, !tbaa !25
  %36 = load ptr, ptr %12, align 8, !tbaa !249
  %37 = getelementptr inbounds nuw %struct.RayCastContext, ptr %36, i32 0, i32 2
  %38 = load i32, ptr %17, align 4, !tbaa !4
  %39 = sub nsw i32 %38, 1
  %40 = sext i32 %39 to i64
  %41 = getelementptr inbounds [3 x float], ptr %37, i64 0, i64 %40
  %42 = load float, ptr %41, align 4, !tbaa !25
  %43 = fcmp olt float %35, %42
  br i1 %43, label %44, label %51

44:                                               ; preds = %34
  %45 = load i32, ptr %17, align 4, !tbaa !4
  %46 = sub nsw i32 %45, 1
  store i32 %46, ptr %17, align 4, !tbaa !4
  %47 = load i32, ptr %17, align 4, !tbaa !4
  %48 = icmp eq i32 %47, 0
  br i1 %48, label %49, label %50

49:                                               ; preds = %44
  br label %51

50:                                               ; preds = %44
  br label %34, !llvm.loop !253

51:                                               ; preds = %49, %34
  %52 = load i32, ptr %17, align 4, !tbaa !4
  %53 = icmp eq i32 %52, 3
  br i1 %53, label %54, label %59

54:                                               ; preds = %51
  %55 = load ptr, ptr %12, align 8, !tbaa !249
  %56 = getelementptr inbounds nuw %struct.RayCastContext, ptr %55, i32 0, i32 2
  %57 = getelementptr inbounds [3 x float], ptr %56, i64 0, i64 2
  %58 = load float, ptr %57, align 4, !tbaa !25
  store float %58, ptr %6, align 4
  store i32 1, ptr %15, align 4
  br label %140

59:                                               ; preds = %51
  call void @llvm.lifetime.start.p0(i64 4, ptr %18) #21
  store i32 2, ptr %18, align 4, !tbaa !4
  br label %60

60:                                               ; preds = %100, %59
  %61 = load i32, ptr %18, align 4, !tbaa !4
  %62 = load i32, ptr %17, align 4, !tbaa !4
  %63 = icmp sgt i32 %61, %62
  br i1 %63, label %65, label %64

64:                                               ; preds = %60
  store i32 4, ptr %15, align 4
  call void @llvm.lifetime.end.p0(i64 4, ptr %18) #21
  br label %103

65:                                               ; preds = %60
  %66 = load ptr, ptr %12, align 8, !tbaa !249
  %67 = getelementptr inbounds nuw %struct.RayCastContext, ptr %66, i32 0, i32 0
  %68 = load i32, ptr %18, align 4, !tbaa !4
  %69 = sub nsw i32 %68, 1
  %70 = sext i32 %69 to i64
  %71 = getelementptr inbounds [3 x %struct.b2Vec2], ptr %67, i64 0, i64 %70
  %72 = load ptr, ptr %12, align 8, !tbaa !249
  %73 = getelementptr inbounds nuw %struct.RayCastContext, ptr %72, i32 0, i32 0
  %74 = load i32, ptr %18, align 4, !tbaa !4
  %75 = sext i32 %74 to i64
  %76 = getelementptr inbounds [3 x %struct.b2Vec2], ptr %73, i64 0, i64 %75
  call void @llvm.memcpy.p0.p0.i64(ptr align 4 %76, ptr align 4 %71, i64 8, i1 false), !tbaa.struct !24
  %77 = load ptr, ptr %12, align 8, !tbaa !249
  %78 = getelementptr inbounds nuw %struct.RayCastContext, ptr %77, i32 0, i32 1
  %79 = load i32, ptr %18, align 4, !tbaa !4
  %80 = sub nsw i32 %79, 1
  %81 = sext i32 %80 to i64
  %82 = getelementptr inbounds [3 x %struct.b2Vec2], ptr %78, i64 0, i64 %81
  %83 = load ptr, ptr %12, align 8, !tbaa !249
  %84 = getelementptr inbounds nuw %struct.RayCastContext, ptr %83, i32 0, i32 1
  %85 = load i32, ptr %18, align 4, !tbaa !4
  %86 = sext i32 %85 to i64
  %87 = getelementptr inbounds [3 x %struct.b2Vec2], ptr %84, i64 0, i64 %86
  call void @llvm.memcpy.p0.p0.i64(ptr align 4 %87, ptr align 4 %82, i64 8, i1 false), !tbaa.struct !24
  %88 = load ptr, ptr %12, align 8, !tbaa !249
  %89 = getelementptr inbounds nuw %struct.RayCastContext, ptr %88, i32 0, i32 2
  %90 = load i32, ptr %18, align 4, !tbaa !4
  %91 = sub nsw i32 %90, 1
  %92 = sext i32 %91 to i64
  %93 = getelementptr inbounds [3 x float], ptr %89, i64 0, i64 %92
  %94 = load float, ptr %93, align 4, !tbaa !25
  %95 = load ptr, ptr %12, align 8, !tbaa !249
  %96 = getelementptr inbounds nuw %struct.RayCastContext, ptr %95, i32 0, i32 2
  %97 = load i32, ptr %18, align 4, !tbaa !4
  %98 = sext i32 %97 to i64
  %99 = getelementptr inbounds [3 x float], ptr %96, i64 0, i64 %98
  store float %94, ptr %99, align 4, !tbaa !25
  br label %100

100:                                              ; preds = %65
  %101 = load i32, ptr %18, align 4, !tbaa !4
  %102 = add nsw i32 %101, -1
  store i32 %102, ptr %18, align 4, !tbaa !4
  br label %60, !llvm.loop !254

103:                                              ; preds = %64
  %104 = load ptr, ptr %12, align 8, !tbaa !249
  %105 = getelementptr inbounds nuw %struct.RayCastContext, ptr %104, i32 0, i32 0
  %106 = load i32, ptr %17, align 4, !tbaa !4
  %107 = sext i32 %106 to i64
  %108 = getelementptr inbounds [3 x %struct.b2Vec2], ptr %105, i64 0, i64 %107
  call void @llvm.memcpy.p0.p0.i64(ptr align 4 %108, ptr align 4 %8, i64 8, i1 false), !tbaa.struct !24
  %109 = load ptr, ptr %12, align 8, !tbaa !249
  %110 = getelementptr inbounds nuw %struct.RayCastContext, ptr %109, i32 0, i32 1
  %111 = load i32, ptr %17, align 4, !tbaa !4
  %112 = sext i32 %111 to i64
  %113 = getelementptr inbounds [3 x %struct.b2Vec2], ptr %110, i64 0, i64 %112
  call void @llvm.memcpy.p0.p0.i64(ptr align 4 %113, ptr align 4 %9, i64 8, i1 false), !tbaa.struct !24
  %114 = load float, ptr %10, align 4, !tbaa !25
  %115 = load ptr, ptr %12, align 8, !tbaa !249
  %116 = getelementptr inbounds nuw %struct.RayCastContext, ptr %115, i32 0, i32 2
  %117 = load i32, ptr %17, align 4, !tbaa !4
  %118 = sext i32 %117 to i64
  %119 = getelementptr inbounds [3 x float], ptr %116, i64 0, i64 %118
  store float %114, ptr %119, align 4, !tbaa !25
  %120 = load i32, ptr %16, align 4, !tbaa !4
  %121 = icmp slt i32 %120, 3
  br i1 %121, label %122, label %125

122:                                              ; preds = %103
  %123 = load i32, ptr %16, align 4, !tbaa !4
  %124 = add nsw i32 %123, 1
  br label %126

125:                                              ; preds = %103
  br label %126

126:                                              ; preds = %125, %122
  %127 = phi i32 [ %124, %122 ], [ 3, %125 ]
  %128 = load ptr, ptr %12, align 8, !tbaa !249
  %129 = getelementptr inbounds nuw %struct.RayCastContext, ptr %128, i32 0, i32 3
  store i32 %127, ptr %129, align 4, !tbaa !244
  %130 = load ptr, ptr %12, align 8, !tbaa !249
  %131 = getelementptr inbounds nuw %struct.RayCastContext, ptr %130, i32 0, i32 3
  %132 = load i32, ptr %131, align 4, !tbaa !244
  %133 = icmp eq i32 %132, 3
  br i1 %133, label %134, label %139

134:                                              ; preds = %126
  %135 = load ptr, ptr %12, align 8, !tbaa !249
  %136 = getelementptr inbounds nuw %struct.RayCastContext, ptr %135, i32 0, i32 2
  %137 = getelementptr inbounds [3 x float], ptr %136, i64 0, i64 2
  %138 = load float, ptr %137, align 4, !tbaa !25
  store float %138, ptr %6, align 4
  store i32 1, ptr %15, align 4
  br label %140

139:                                              ; preds = %126
  store float 1.000000e+00, ptr %6, align 4
  store i32 1, ptr %15, align 4
  br label %140

140:                                              ; preds = %139, %134, %54
  call void @llvm.lifetime.end.p0(i64 4, ptr %17) #21
  call void @llvm.lifetime.end.p0(i64 4, ptr %16) #21
  br label %141

141:                                              ; preds = %140, %29
  call void @llvm.lifetime.end.p0(i64 8, ptr %13) #21
  call void @llvm.lifetime.end.p0(i64 8, ptr %12) #21
  %142 = load float, ptr %6, align 4
  ret float %142
}