; Function Attrs: mustprogress uwtable
define internal noundef float @_ZL21RayCastSortedCallback9b2ShapeId6b2Vec2S0_fPv(i64 %0, <2 x float> %1, <2 x float> %2, float noundef %3, ptr noundef captures(none) %4) #2 {
  %6 = tail call ptr @b2Shape_GetUserData(i64 %0)
  %.not = icmp eq ptr %6, null
  br i1 %.not, label %11, label %7

7:                                                ; preds = %5
  %8 = getelementptr inbounds nuw i8, ptr %6, i64 4
  %9 = load i8, ptr %8, align 4, !tbaa !201, !range !13, !noundef !14
  %10 = trunc nuw i8 %9 to i1
  br i1 %10, label %48, label %11

11:                                               ; preds = %7, %5
  %12 = getelementptr inbounds nuw i8, ptr %4, i64 60
  %13 = load i32, ptr %12, align 4, !tbaa !219
  %14 = getelementptr inbounds nuw i8, ptr %4, i64 48
  br label %15

15:                                               ; preds = %19, %11
  %indvars.iv = phi i64 [ %indvars.iv.next, %19 ], [ 3, %11 ]
  %indvars.iv.next = add nsw i64 %indvars.iv, -1
  %16 = getelementptr inbounds nuw [3 x float], ptr %14, i64 0, i64 %indvars.iv.next
  %17 = load float, ptr %16, align 4, !tbaa !15
  %18 = fcmp olt float %3, %17
  br i1 %18, label %19, label %21

19:                                               ; preds = %15
  %20 = icmp eq i64 %indvars.iv.next, 0
  br i1 %20, label %.lr.ph, label %15, !llvm.loop !229

21:                                               ; preds = %15
  %22 = icmp eq i64 %indvars.iv, 3
  br i1 %22, label %.sink.split, label %.preheader

.preheader:                                       ; preds = %21
  %23 = trunc nuw nsw i64 %indvars.iv to i32
  %24 = icmp slt i64 %indvars.iv, 2
  br i1 %24, label %.lr.ph, label %._crit_edge

.lr.ph:                                           ; preds = %19, %.preheader
  %.15356 = phi i32 [ %23, %.preheader ], [ 0, %19 ]
  %25 = getelementptr inbounds nuw i8, ptr %4, i64 24
  %26 = zext i32 %.15356 to i64
  br label %35

._crit_edge:                                      ; preds = %35, %.preheader
  %.15355 = phi i32 [ %23, %.preheader ], [ %.15356, %35 ]
  %27 = sext i32 %.15355 to i64
  %28 = getelementptr inbounds [3 x %struct.b2Vec2], ptr %4, i64 0, i64 %27
  store <2 x float> %1, ptr %28, align 4
  %29 = getelementptr inbounds nuw i8, ptr %4, i64 24
  %30 = getelementptr inbounds [3 x %struct.b2Vec2], ptr %29, i64 0, i64 %27
  store <2 x float> %2, ptr %30, align 4
  %31 = getelementptr inbounds [3 x float], ptr %14, i64 0, i64 %27
  store float %3, ptr %31, align 4, !tbaa !15
  %32 = tail call i32 @llvm.smin.i32(i32 %13, i32 2)
  %33 = add nsw i32 %32, 1
  store i32 %33, ptr %12, align 4, !tbaa !219
  %34 = icmp eq i32 %33, 3
  br i1 %34, label %.sink.split, label %48

35:                                               ; preds = %.lr.ph, %35
  %indvars.iv49 = phi i64 [ 2, %.lr.ph ], [ %indvars.iv.next50, %35 ]
  %indvars.iv.next50 = add nsw i64 %indvars.iv49, -1
  %36 = getelementptr inbounds [3 x %struct.b2Vec2], ptr %4, i64 0, i64 %indvars.iv.next50
  %37 = getelementptr inbounds [3 x %struct.b2Vec2], ptr %4, i64 0, i64 %indvars.iv49
  %38 = load i64, ptr %36, align 4
  store i64 %38, ptr %37, align 4
  %39 = getelementptr inbounds [3 x %struct.b2Vec2], ptr %25, i64 0, i64 %indvars.iv.next50
  %40 = getelementptr inbounds [3 x %struct.b2Vec2], ptr %25, i64 0, i64 %indvars.iv49
  %41 = load i64, ptr %39, align 4
  store i64 %41, ptr %40, align 4
  %42 = getelementptr inbounds [3 x float], ptr %14, i64 0, i64 %indvars.iv.next50
  %43 = load float, ptr %42, align 4, !tbaa !15
  %44 = getelementptr inbounds [3 x float], ptr %14, i64 0, i64 %indvars.iv49
  store float %43, ptr %44, align 4, !tbaa !15
  %45 = icmp ugt i64 %indvars.iv.next50, %26
  br i1 %45, label %35, label %._crit_edge, !llvm.loop !230

.sink.split:                                      ; preds = %._crit_edge, %21
  %46 = getelementptr inbounds nuw i8, ptr %4, i64 56
  %47 = load float, ptr %46, align 4, !tbaa !15
  br label %48

48:                                               ; preds = %.sink.split, %._crit_edge, %7
  %.042 = phi float [ -1.000000e+00, %7 ], [ 1.000000e+00, %._crit_edge ], [ %47, %.sink.split ]
  ret float %.042
}